; Function Attrs: mustprogress uwtable
define void @_ZN8facebook4yoga4Node8setDirtyEb(ptr noundef nonnull align 8 dereferenceable(584) %0, i1 noundef zeroext %1) local_unnamed_addr #3 align 2 {
  %3 = load i8, ptr %0, align 8
  %4 = and i8 %3, 4
  %5 = icmp eq i8 %4, 0
  %6 = xor i1 %1, %5
  br i1 %6, label %15, label %7

7:                                                ; preds = %2
  %8 = select i1 %1, i8 4, i8 0
  %9 = and i8 %3, -5
  %10 = or disjoint i8 %9, %8
  store i8 %10, ptr %0, align 8
  br i1 %1, label %11, label %15

11:                                               ; preds = %7
  %12 = getelementptr inbounds nuw i8, ptr %0, i64 32
  %13 = load ptr, ptr %12, align 8, !tbaa !82
  %.not = icmp eq ptr %13, null
  br i1 %.not, label %15, label %14

14:                                               ; preds = %11
  tail call void %13(ptr noundef nonnull %0)
  br label %15

15:                                               ; preds = %2, %14, %11, %7
  ret void
}